target datalayout = "e-m:e-p270:32:32-p271:32:32-p272:64:64-i64:64-i128:128-f80:128-n8:16:32:64-S128"
target triple = "x86_64-unknown-linux-gnu"

%"class.absl::base_internal::ScopedSetEnv" = type <{ %"class.std::__cxx11::basic_string", %"class.std::__cxx11::basic_string", i8, [7 x i8] }>
%"class.std::__cxx11::basic_string" = type { %"struct.std::__cxx11::basic_string<char>::_Alloc_hider", i64, %union.anon }
%"struct.std::__cxx11::basic_string<char>::_Alloc_hider" = type { ptr }
%union.anon = type { i64, [8 x i8] }

; Function Attrs: noreturn nounwind uwtable
define linkonce_odr hidden void @__clang_call_terminate(ptr noundef %0) #4 comdat {
  %2 = call ptr @__cxa_begin_catch(ptr %0) #6
  call void @_ZSt9terminatev() #8
  unreachable
}

; Function Attrs: mustprogress nounwind uwtable
define internal void @_ZN4absl13base_internal12_GLOBAL__N_19SetEnvVarEPKcS3_(ptr noundef %name, ptr noundef %value) #3 {
entry:
  %name.addr = alloca ptr, align 8
  %value.addr = alloca ptr, align 8
  store ptr %name, ptr %name.addr, align 8
  store ptr %value, ptr %value.addr, align 8
  %0 = load ptr, ptr %value.addr, align 8
  %cmp = icmp eq ptr %0, null
  br i1 %cmp, label %if.then, label %if.else

if.then:                                          ; preds = %entry
  %1 = load ptr, ptr %name.addr, align 8
  %call = call i32 @unsetenv(ptr noundef %1) #6
  br label %if.end

if.else:                                          ; preds = %entry
  %2 = load ptr, ptr %name.addr, align 8
  %3 = load ptr, ptr %value.addr, align 8
  %call1 = call i32 @setenv(ptr noundef %2, ptr noundef %3, i32 noundef 1) #6
  br label %if.end

if.end:                                           ; preds = %if.else, %if.then
  ret void
}

; Function Attrs: mustprogress nounwind uwtable
define dso_local void @_ZN4absl13base_internal12ScopedSetEnvD2Ev(ptr noundef nonnull align 8 dereferenceable(65) %this) unnamed_addr #3 align 2 personality ptr @__gxx_personality_v0 {
entry:
  %this.addr = alloca ptr, align 8
  store ptr %this, ptr %this.addr, align 8
  %this1 = load ptr, ptr %this.addr, align 8
  %var_name_ = getelementptr inbounds %"class.absl::base_internal::ScopedSetEnv", ptr %this1, i32 0, i32 0
  %call = call noundef ptr @_ZNKSt7__cxx1112basic_stringIcSt11char_traitsIcESaIcEE5c_strEv(ptr noundef nonnull align 8 dereferenceable(32) %var_name_) #6
  %was_unset_ = getelementptr inbounds %"class.absl::base_internal::ScopedSetEnv", ptr %this1, i32 0, i32 2
  %0 = load i8, ptr %was_unset_, align 8
  %tobool = trunc i8 %0 to i1
  br i1 %tobool, label %cond.true, label %cond.false

cond.true:                                        ; preds = %entry
  br label %cond.end

cond.false:                                       ; preds = %entry
  %old_value_ = getelementptr inbounds %"class.absl::base_internal::ScopedSetEnv", ptr %this1, i32 0, i32 1
  %call2 = call noundef ptr @_ZNKSt7__cxx1112basic_stringIcSt11char_traitsIcESaIcEE5c_strEv(ptr noundef nonnull align 8 dereferenceable(32) %old_value_) #6
  br label %cond.end

cond.end:                                         ; preds = %cond.false, %cond.true
  %cond = phi ptr [ null, %cond.true ], [ %call2, %cond.false ]
  invoke void @_ZN4absl13base_internal12_GLOBAL__N_19SetEnvVarEPKcS3_(ptr noundef %call, ptr noundef %cond)
          to label %invoke.cont unwind label %terminate.lpad

invoke.cont:                                      ; preds = %cond.end
  %old_value_3 = getelementptr inbounds %"class.absl::base_internal::ScopedSetEnv", ptr %this1, i32 0, i32 1
  call void @_ZNSt7__cxx1112basic_stringIcSt11char_traitsIcESaIcEED1Ev(ptr noundef nonnull align 8 dereferenceable(32) %old_value_3) #6
  %var_name_4 = getelementptr inbounds %"class.absl::base_internal::ScopedSetEnv", ptr %this1, i32 0, i32 0
  call void @_ZNSt7__cxx1112basic_stringIcSt11char_traitsIcESaIcEED1Ev(ptr noundef nonnull align 8 dereferenceable(32) %var_name_4) #6
  ret void

terminate.lpad:                                   ; preds = %cond.end
  %1 = landingpad { ptr, i32 }
          catch ptr null
  %2 = extractvalue { ptr, i32 } %1, 0
  call void @__clang_call_terminate(ptr %2) #8
  unreachable
}