; Function Attrs: mustprogress nounwind uwtable
define dso_local void @_ZN4absl13base_internal12ScopedSetEnvD2Ev(ptr noundef nonnull align 8 dereferenceable(65) %this) unnamed_addr #4 align 2 personality ptr @__gxx_personality_v0 {
entry:
  %call = tail call noundef ptr @_ZNKSt7__cxx1112basic_stringIcSt11char_traitsIcESaIcEE5c_strEv(ptr noundef nonnull align 8 dereferenceable(32) %this) #10
  %was_unset_ = getelementptr inbounds nuw i8, ptr %this, i64 64
  %0 = load i8, ptr %was_unset_, align 8
  %tobool = trunc i8 %0 to i1
  br i1 %tobool, label %if.then.i, label %cond.end

cond.end:                                         ; preds = %entry
  %old_value_ = getelementptr inbounds nuw i8, ptr %this, i64 32
  %call2 = tail call noundef ptr @_ZNKSt7__cxx1112basic_stringIcSt11char_traitsIcESaIcEE5c_strEv(ptr noundef nonnull align 8 dereferenceable(32) %old_value_) #10
  %cmp.i = icmp eq ptr %call2, null
  br i1 %cmp.i, label %if.then.i, label %if.else.i

if.then.i:                                        ; preds = %entry, %cond.end
  %call.i = tail call i32 @unsetenv(ptr noundef %call) #10
  br label %_ZN4absl13base_internal12_GLOBAL__N_19SetEnvVarEPKcS3_.exit

if.else.i:                                        ; preds = %cond.end
  %call1.i = tail call i32 @setenv(ptr noundef %call, ptr noundef nonnull %call2, i32 noundef 1) #10
  br label %_ZN4absl13base_internal12_GLOBAL__N_19SetEnvVarEPKcS3_.exit

_ZN4absl13base_internal12_GLOBAL__N_19SetEnvVarEPKcS3_.exit: ; preds = %if.then.i, %if.else.i
  %old_value_3 = getelementptr inbounds nuw i8, ptr %this, i64 32
  tail call void @_ZNSt7__cxx1112basic_stringIcSt11char_traitsIcESaIcEED1Ev(ptr noundef nonnull align 8 dereferenceable(32) %old_value_3) #10
  tail call void @_ZNSt7__cxx1112basic_stringIcSt11char_traitsIcESaIcEED1Ev(ptr noundef nonnull align 8 dereferenceable(32) %this) #10
  ret void
}